target datalayout = "e-m:e-p270:32:32-p271:32:32-p272:64:64-i64:64-i128:128-f80:128-n8:16:32:64-S128"
target triple = "x86_64-unknown-linux-gnu"

%"class.std::basic_istream" = type { ptr, i64, %"class.std::basic_ios" }
%"class.std::basic_ios" = type { %"class.std::ios_base", ptr, i8, i8, ptr, ptr, ptr, ptr }
%"class.std::ios_base" = type { ptr, i64, i64, i32, i32, i32, ptr, %"struct.std::ios_base::_Words", [8 x %"struct.std::ios_base::_Words"], i32, ptr, %"class.std::locale" }
%"struct.std::ios_base::_Words" = type { ptr, i64 }
%"class.std::locale" = type { ptr }
%"class.std::basic_ostream" = type { ptr, %"class.std::basic_ios" }
%class.veloxtpFlexLexer = type <{ %class.FlexLexer.base, i32, i32, [4 x i8], ptr, %"class.std::basic_istream", %"class.std::basic_ostream", i8, [3 x i8], i32, ptr, i32, i32, i32, [4 x i8], i64, i64, ptr, i32, [4 x i8], ptr, ptr, ptr, ptr, ptr, i32, i32, i32, i32, i32, i32, i32, [4 x i8] }>
%class.FlexLexer.base = type <{ ptr, ptr, i32, i32, i32 }>

; Function Attrs: mustprogress uwtable
define void @_ZN16veloxtpFlexLexer14switch_streamsEPSiPSo(ptr noundef nonnull align 8 dereferenceable(732) %this, ptr noundef %new_in, ptr noundef %new_out) unnamed_addr #5 align 2 {
entry:
  %this.addr = alloca ptr, align 8
  %new_in.addr = alloca ptr, align 8
  %new_out.addr = alloca ptr, align 8
  store ptr %this, ptr %this.addr, align 8
  store ptr %new_in, ptr %new_in.addr, align 8
  store ptr %new_out, ptr %new_out.addr, align 8
  %this1 = load ptr, ptr %this.addr, align 8
  %0 = load ptr, ptr %new_in.addr, align 8
  %tobool = icmp ne ptr %0, null
  br i1 %tobool, label %if.end, label %if.then

if.then:                                          ; preds = %entry
  %yyin = getelementptr inbounds %class.veloxtpFlexLexer, ptr %this1, i32 0, i32 5
  store ptr %yyin, ptr %new_in.addr, align 8
  br label %if.end

if.end:                                           ; preds = %if.then, %entry
  %1 = load ptr, ptr %new_out.addr, align 8
  %tobool2 = icmp ne ptr %1, null
  br i1 %tobool2, label %if.end4, label %if.then3

if.then3:                                         ; preds = %if.end
  %yyout = getelementptr inbounds %class.veloxtpFlexLexer, ptr %this1, i32 0, i32 6
  store ptr %yyout, ptr %new_out.addr, align 8
  br label %if.end4

if.end4:                                          ; preds = %if.then3, %if.end
  %2 = load ptr, ptr %new_in.addr, align 8
  %3 = load ptr, ptr %new_out.addr, align 8
  %vtable = load ptr, ptr %this1, align 8
  %vfn = getelementptr inbounds ptr, ptr %vtable, i64 10
  %4 = load ptr, ptr %vfn, align 8
  call void %4(ptr noundef nonnull align 8 dereferenceable(732) %this1, ptr noundef nonnull align 8 dereferenceable(16) %2, ptr noundef nonnull align 8 dereferenceable(8) %3)
  ret void
}