; Function Attrs: mustprogress uwtable
define void @_ZN16veloxtpFlexLexer14switch_streamsEPSiPSo(ptr noundef nonnull align 8 dereferenceable(732) %this, ptr noundef %new_in, ptr noundef %new_out) unnamed_addr #4 align 2 {
entry:
  %tobool.not = icmp eq ptr %new_in, null
  %yyin = getelementptr inbounds i8, ptr %this, i64 48
  %spec.select = select i1 %tobool.not, ptr %yyin, ptr %new_in
  %tobool2.not = icmp eq ptr %new_out, null
  %yyout = getelementptr inbounds i8, ptr %this, i64 328
  %new_out.addr.0 = select i1 %tobool2.not, ptr %yyout, ptr %new_out
  %vtable = load ptr, ptr %this, align 8
  %vfn = getelementptr inbounds i8, ptr %vtable, i64 80
  %0 = load ptr, ptr %vfn, align 8
  tail call void %0(ptr noundef nonnull align 8 dereferenceable(732) %this, ptr noundef nonnull align 8 dereferenceable(16) %spec.select, ptr noundef nonnull align 8 dereferenceable(8) %new_out.addr.0)
  ret void
}